target datalayout = "e-m:e-p270:32:32-p271:32:32-p272:64:64-i64:64-i128:128-f80:128-n8:16:32:64-S128"
target triple = "x86_64-pc-linux-gnu"

%struct.fd_set = type { [16 x i64] }
%struct.timeval = type { i64, i64 }

; Function Attrs: nounwind uwtable
define dso_local i32 @wait_until_sock_readable(i32 noundef %0) #0 {
  %2 = alloca i32, align 4
  %3 = alloca %struct.fd_set, align 8
  %4 = alloca %struct.timeval, align 8
  %5 = alloca i32, align 4
  %6 = alloca i32, align 4
  %7 = alloca ptr, align 8
  store i32 %0, ptr %2, align 4, !tbaa !13
  call void @llvm.lifetime.start.p0(i64 128, ptr %3) #10
  call void @llvm.lifetime.start.p0(i64 16, ptr %4) #10
  call void @llvm.lifetime.start.p0(i64 4, ptr %5) #10
  %8 = load i32, ptr %2, align 4, !tbaa !13
  %9 = add nsw i32 %8, 1
  store i32 %9, ptr %5, align 4, !tbaa !13
  br label %10

10:                                               ; preds = %1
  call void @llvm.lifetime.start.p0(i64 4, ptr %6) #10
  call void @llvm.lifetime.start.p0(i64 8, ptr %7) #10
  store ptr %3, ptr %7, align 8, !tbaa !17
  store i32 0, ptr %6, align 4, !tbaa !13
  br label %11

11:                                               ; preds = %21, %10
  %12 = load i32, ptr %6, align 4, !tbaa !13
  %13 = zext i32 %12 to i64
  %14 = icmp ult i64 %13, 16
  br i1 %14, label %15, label %24

15:                                               ; preds = %11
  %16 = load ptr, ptr %7, align 8, !tbaa !17
  %17 = getelementptr inbounds nuw %struct.fd_set, ptr %16, i32 0, i32 0
  %18 = load i32, ptr %6, align 4, !tbaa !13
  %19 = zext i32 %18 to i64
  %20 = getelementptr inbounds nuw [16 x i64], ptr %17, i64 0, i64 %19
  store i64 0, ptr %20, align 8, !tbaa !15
  br label %21

21:                                               ; preds = %15
  %22 = load i32, ptr %6, align 4, !tbaa !13
  %23 = add i32 %22, 1
  store i32 %23, ptr %6, align 4, !tbaa !13
  br label %11, !llvm.loop !63

24:                                               ; preds = %11
  call void @llvm.lifetime.end.p0(i64 8, ptr %7) #10
  call void @llvm.lifetime.end.p0(i64 4, ptr %6) #10
  br label %25

25:                                               ; preds = %24
  br label %26

26:                                               ; preds = %25
  %27 = load i32, ptr %2, align 4, !tbaa !13
  %28 = srem i32 %27, 64
  %29 = zext i32 %28 to i64
  %30 = shl i64 1, %29
  %31 = getelementptr inbounds nuw %struct.fd_set, ptr %3, i32 0, i32 0
  %32 = load i32, ptr %2, align 4, !tbaa !13
  %33 = sdiv i32 %32, 64
  %34 = sext i32 %33 to i64
  %35 = getelementptr inbounds [16 x i64], ptr %31, i64 0, i64 %34
  %36 = load i64, ptr %35, align 8, !tbaa !15
  %37 = or i64 %36, %30
  store i64 %37, ptr %35, align 8, !tbaa !15
  %38 = getelementptr inbounds nuw %struct.timeval, ptr %4, i32 0, i32 0
  store i64 10, ptr %38, align 8, !tbaa !64
  %39 = getelementptr inbounds nuw %struct.timeval, ptr %4, i32 0, i32 1
  store i64 0, ptr %39, align 8, !tbaa !66
  %40 = load i32, ptr %5, align 4, !tbaa !13
  %41 = call i32 @select(i32 noundef %40, ptr noundef %3, ptr noundef null, ptr noundef null, ptr noundef %4)
  %42 = getelementptr inbounds nuw %struct.fd_set, ptr %3, i32 0, i32 0
  %43 = load i32, ptr %2, align 4, !tbaa !13
  %44 = sdiv i32 %43, 64
  %45 = sext i32 %44 to i64
  %46 = getelementptr inbounds [16 x i64], ptr %42, i64 0, i64 %45
  %47 = load i64, ptr %46, align 8, !tbaa !15
  %48 = load i32, ptr %2, align 4, !tbaa !13
  %49 = srem i32 %48, 64
  %50 = zext i32 %49 to i64
  %51 = shl i64 1, %50
  %52 = and i64 %47, %51
  %53 = icmp ne i64 %52, 0
  %54 = zext i1 %53 to i32
  call void @llvm.lifetime.end.p0(i64 4, ptr %5) #10
  call void @llvm.lifetime.end.p0(i64 16, ptr %4) #10
  call void @llvm.lifetime.end.p0(i64 128, ptr %3) #10
  ret i32 %54
}