; Function Attrs: nounwind uwtable
define dso_local range(i32 0, 2) i32 @wait_until_sock_readable(i32 noundef %0) local_unnamed_addr #0 {
  %2 = alloca %struct.fd_set, align 8
  %3 = alloca %struct.timeval, align 8
  call void @llvm.lifetime.start.p0(i64 128, ptr nonnull %2) #14
  call void @llvm.lifetime.start.p0(i64 16, ptr nonnull %3) #14
  call void @llvm.memset.p0.i64(ptr noundef nonnull align 8 dereferenceable(128) %2, i8 0, i64 128, i1 false), !tbaa !50
  %4 = add nsw i32 %0, 1
  %5 = srem i32 %0, 64
  %6 = zext nneg i32 %5 to i64
  %7 = shl nuw i64 1, %6
  %8 = sdiv i32 %0, 64
  %9 = sext i32 %8 to i64
  %10 = getelementptr inbounds [16 x i64], ptr %2, i64 0, i64 %9
  %11 = load i64, ptr %10, align 8, !tbaa !50
  %12 = or i64 %11, %7
  store i64 %12, ptr %10, align 8, !tbaa !50
  store i64 10, ptr %3, align 8, !tbaa !52
  %13 = getelementptr inbounds nuw i8, ptr %3, i64 8
  store i64 0, ptr %13, align 8, !tbaa !54
  %14 = call i32 @select(i32 noundef %4, ptr noundef nonnull %2, ptr noundef null, ptr noundef null, ptr noundef nonnull %3) #14
  %15 = load i64, ptr %10, align 8, !tbaa !50
  %16 = lshr i64 %15, %6
  %17 = trunc i64 %16 to i32
  %18 = and i32 %17, 1
  call void @llvm.lifetime.end.p0(i64 16, ptr nonnull %3) #14
  call void @llvm.lifetime.end.p0(i64 128, ptr nonnull %2) #14
  ret i32 %18
}